target datalayout = "e-m:e-p270:32:32-p271:32:32-p272:64:64-i64:64-i128:128-f80:128-n8:16:32:64-S128"
target triple = "x86_64-unknown-linux-gnu"

%struct.hlist_head = type { ptr }
%struct.pcpu_hot = type { %union.anon.31 }
%union.anon.31 = type { %struct.anon.32, [16 x i8] }
%struct.anon.32 = type { ptr, i32, i32, i64, i64, ptr, i16, i8 }

@posix_timers_hashtable = internal global [512 x %struct.hlist_head] zeroinitializer, align 16
@pcpu_hot = external dso_local global %struct.pcpu_hot, section ".data..percpu..shared_aligned", align 64
@.str.2 = private unnamed_addr constant [27 x i8] c"kernel/time/posix-timers.c\00", align 1

; Function Attrs: fn_ret_thunk_extern nounwind null_pointer_is_valid
define internal fastcc ptr @__lock_timer(i32 noundef %0, ptr nocapture noundef writeonly %1) unnamed_addr #1 align 16 {
  %3 = icmp slt i32 %0, 0
  br i1 %3, label %52, label %4

4:                                                ; preds = %2
  tail call void @__rcu_read_lock() #8
  %5 = tail call i64 asm "movq %gs:${1:P}, $0", "=r,p,~{dirflag},~{fpsr},~{flags}"(ptr nonnull @pcpu_hot) #9, !srcloc !6
  %6 = inttoptr i64 %5 to ptr
  %7 = getelementptr inbounds i8, ptr %6, i64 1880
  %8 = load ptr, ptr %7, align 8
  %9 = ptrtoint ptr %8 to i64
  %10 = lshr i64 %9, 32
  %11 = xor i64 %10, %9
  %12 = trunc i64 %11 to i32
  %13 = xor i32 %12, %0
  %14 = mul i32 %13, 1640531527
  %15 = lshr i32 %14, 23
  %16 = zext nneg i32 %15 to i64
  %17 = getelementptr [512 x %struct.hlist_head], ptr @posix_timers_hashtable, i64 0, i64 %16
  %18 = load volatile ptr, ptr %17, align 8
  %19 = icmp eq ptr %18, null
  %20 = getelementptr i8, ptr %18, i64 -16
  %21 = icmp eq ptr %20, null
  %22 = or i1 %19, %21
  br i1 %22, label %39, label %23

23:                                               ; preds = %32, %4
  %24 = phi ptr [ %37, %32 ], [ %20, %4 ]
  %25 = getelementptr inbounds i8, ptr %24, i64 96
  %26 = load volatile ptr, ptr %25, align 8
  %27 = icmp eq ptr %26, %8
  br i1 %27, label %28, label %32

28:                                               ; preds = %23
  %29 = getelementptr inbounds i8, ptr %24, i64 52
  %30 = load i32, ptr %29, align 4
  %31 = icmp eq i32 %30, %0
  br i1 %31, label %39, label %32

32:                                               ; preds = %28, %23
  %33 = getelementptr inbounds i8, ptr %24, i64 16
  %34 = load volatile ptr, ptr %33, align 8
  %35 = icmp eq ptr %34, null
  %36 = getelementptr i8, ptr %34, i64 -16
  %37 = select i1 %35, ptr null, ptr %36
  %38 = icmp eq ptr %37, null
  br i1 %38, label %39, label %23, !llvm.loop !7

39:                                               ; preds = %32, %28, %4
  %40 = phi ptr [ null, %4 ], [ %24, %28 ], [ null, %32 ]
  %41 = icmp eq ptr %40, null
  br i1 %41, label %50, label %42

42:                                               ; preds = %39
  %43 = getelementptr inbounds i8, ptr %40, i64 32
  %44 = tail call i64 @_raw_spin_lock_irqsave(ptr noundef %43) #8
  store i64 %44, ptr %1, align 8
  %45 = getelementptr inbounds i8, ptr %40, i64 96
  %46 = load ptr, ptr %45, align 8
  %47 = load ptr, ptr %7, align 8
  %48 = icmp eq ptr %46, %47
  br i1 %48, label %50, label %49

49:                                               ; preds = %42
  tail call void @_raw_spin_unlock_irqrestore(ptr noundef %43, i64 noundef %44) #8
  br label %50

50:                                               ; preds = %49, %42, %39
  %51 = phi ptr [ %40, %42 ], [ null, %49 ], [ null, %39 ]
  tail call void @__rcu_read_unlock() #8
  br label %52

52:                                               ; preds = %50, %2
  %53 = phi ptr [ null, %2 ], [ %51, %50 ]
  ret ptr %53
}

; Function Attrs: fn_ret_thunk_extern nounwind null_pointer_is_valid
define internal fastcc i32 @do_timer_settime(i32 noundef %0, i32 noundef %1, ptr noundef %2, ptr noundef %3) unnamed_addr #1 align 16 {
  %5 = alloca i64, align 8
  call void @llvm.lifetime.start.p0(i64 8, ptr nonnull %5) #8
  store i64 0, ptr %5, align 8, !annotation !5
  %6 = load i64, ptr %2, align 8
  %7 = icmp slt i64 %6, 0
  br i1 %7, label %59, label %8

8:                                                ; preds = %4
  %9 = getelementptr inbounds i8, ptr %2, i64 8
  %10 = load i64, ptr %9, align 8
  %11 = icmp ult i64 %10, 1000000000
  br i1 %11, label %12, label %59

12:                                               ; preds = %8
  %13 = getelementptr inbounds i8, ptr %2, i64 16
  %14 = load i64, ptr %13, align 8
  %15 = icmp slt i64 %14, 0
  br i1 %15, label %59, label %16

16:                                               ; preds = %12
  %17 = getelementptr inbounds i8, ptr %2, i64 24
  %18 = load i64, ptr %17, align 8
  %19 = icmp ult i64 %18, 1000000000
  br i1 %19, label %20, label %59

20:                                               ; preds = %16
  %21 = icmp eq ptr %3, null
  br i1 %21, label %23, label %22

22:                                               ; preds = %20
  tail call void @llvm.memset.p0.i64(ptr noundef nonnull align 8 dereferenceable(32) %3, i8 0, i64 32, i1 false)
  br label %23

23:                                               ; preds = %22, %20
  %24 = call fastcc ptr @__lock_timer(i32 noundef %0, ptr noundef nonnull %5)
  %25 = icmp eq ptr %24, null
  br i1 %25, label %59, label %26

26:                                               ; preds = %53, %23
  %27 = phi ptr [ null, %53 ], [ %3, %23 ]
  %28 = phi ptr [ %54, %53 ], [ %24, %23 ]
  %29 = getelementptr inbounds i8, ptr %28, i64 40
  %30 = load ptr, ptr %29, align 8
  %31 = icmp eq ptr %30, null
  br i1 %31, label %36, label %32

32:                                               ; preds = %26
  %33 = getelementptr inbounds i8, ptr %30, i64 56
  %34 = load ptr, ptr %33, align 8
  %35 = icmp eq ptr %34, null
  br i1 %35, label %36, label %37, !prof !11

36:                                               ; preds = %32, %26
  tail call void asm sideeffect "399: nop\0A\09.pushsection .discard.instr_begin\0A\09.long 399b - .\0A\09.popsection\0A\09", "i,~{dirflag},~{fpsr},~{flags}"(i32 399) #8, !srcloc !32
  tail call void asm sideeffect "1:\09.byte 0x0f, 0x0b\0A.pushsection __bug_table,\22aw\22\0A2:\09.long 1b - .\09# bug_entry::bug_addr\0A\09.long ${0:c} - .\09# bug_entry::file\0A\09.word ${1:c}\09# bug_entry::line\0A\09.word ${2:c}\09# bug_entry::flags\0A\09.org 2b+${3:c}\0A.popsection\0A998:\0A\09.pushsection .discard.reachable\0A\09.long 998b\0A\09.popsection\0A\09", "i,i,i,i,~{dirflag},~{fpsr},~{flags}"(ptr nonnull @.str.2, i32 922, i32 2307, i64 12) #8, !srcloc !33
  tail call void asm sideeffect "400: nop\0A\09.pushsection .discard.instr_end\0A\09.long 400b - .\0A\09.popsection\0A\09", "i,~{dirflag},~{fpsr},~{flags}"(i32 400) #8, !srcloc !34
  br label %39

37:                                               ; preds = %32
  %38 = tail call i32 %34(ptr noundef nonnull %28, i32 noundef %1, ptr noundef %2, ptr noundef %27) #8
  br label %39

39:                                               ; preds = %37, %36
  %40 = phi i32 [ %38, %37 ], [ -22, %36 ]
  %41 = icmp eq i32 %40, 1
  br i1 %41, label %42, label %56

42:                                               ; preds = %39
  %43 = load volatile ptr, ptr %29, align 8
  %44 = getelementptr inbounds i8, ptr %28, i64 52
  %45 = load volatile i32, ptr %44, align 4
  tail call void @__rcu_read_lock() #8
  %46 = load i64, ptr %5, align 8
  %47 = getelementptr inbounds i8, ptr %28, i64 32
  tail call void @_raw_spin_unlock_irqrestore(ptr noundef %47, i64 noundef %46) #8
  %48 = getelementptr inbounds i8, ptr %43, i64 120
  %49 = load ptr, ptr %48, align 8
  %50 = icmp eq ptr %49, null
  br i1 %50, label %51, label %52, !prof !11

51:                                               ; preds = %42
  tail call void asm sideeffect "397: nop\0A\09.pushsection .discard.instr_begin\0A\09.long 397b - .\0A\09.popsection\0A\09", "i,~{dirflag},~{fpsr},~{flags}"(i32 397) #8, !srcloc !21
  tail call void asm sideeffect "1:\09.byte 0x0f, 0x0b\0A.pushsection __bug_table,\22aw\22\0A2:\09.long 1b - .\09# bug_entry::bug_addr\0A\09.long ${0:c} - .\09# bug_entry::file\0A\09.word ${1:c}\09# bug_entry::line\0A\09.word ${2:c}\09# bug_entry::flags\0A\09.org 2b+${3:c}\0A.popsection\0A998:\0A\09.pushsection .discard.reachable\0A\09.long 998b\0A\09.popsection\0A\09", "i,i,i,i,~{dirflag},~{fpsr},~{flags}"(ptr nonnull @.str.2, i32 851, i32 2307, i64 12) #8, !srcloc !22
  tail call void asm sideeffect "398: nop\0A\09.pushsection .discard.instr_end\0A\09.long 398b - .\0A\09.popsection\0A\09", "i,~{dirflag},~{fpsr},~{flags}"(i32 398) #8, !srcloc !23
  br label %53

52:                                               ; preds = %42
  tail call void %49(ptr noundef nonnull %28) #8
  br label %53

53:                                               ; preds = %52, %51
  tail call void @__rcu_read_unlock() #8
  %54 = call fastcc ptr @__lock_timer(i32 noundef %45, ptr noundef nonnull %5)
  %55 = icmp eq ptr %54, null
  br i1 %55, label %59, label %26

56:                                               ; preds = %39
  %57 = load i64, ptr %5, align 8
  %58 = getelementptr inbounds i8, ptr %28, i64 32
  tail call void @_raw_spin_unlock_irqrestore(ptr noundef %58, i64 noundef %57) #8
  br label %59

59:                                               ; preds = %56, %53, %23, %16, %12, %8, %4
  %60 = phi i32 [ %40, %56 ], [ -22, %16 ], [ -22, %8 ], [ -22, %4 ], [ -22, %12 ], [ -22, %23 ], [ -22, %53 ]
  call void @llvm.lifetime.end.p0(i64 8, ptr nonnull %5) #8
  ret i32 %60
}