; Function Attrs: fn_ret_thunk_extern nounwind null_pointer_is_valid
define internal fastcc i32 @do_timer_settime(i32 noundef %0, i32 noundef %1, ptr noundef %2, ptr noundef %3) unnamed_addr #1 align 16 {
  %5 = load i64, ptr %2, align 8
  %6 = icmp slt i64 %5, 0
  br i1 %6, label %__lock_timer.exit.thread, label %7

7:                                                ; preds = %4
  %8 = getelementptr inbounds i8, ptr %2, i64 8
  %9 = load i64, ptr %8, align 8
  %10 = icmp ult i64 %9, 1000000000
  br i1 %10, label %11, label %__lock_timer.exit.thread

11:                                               ; preds = %7
  %12 = getelementptr inbounds i8, ptr %2, i64 16
  %13 = load i64, ptr %12, align 8
  %14 = icmp slt i64 %13, 0
  br i1 %14, label %__lock_timer.exit.thread, label %15

15:                                               ; preds = %11
  %16 = getelementptr inbounds i8, ptr %2, i64 24
  %17 = load i64, ptr %16, align 8
  %18 = icmp ult i64 %17, 1000000000
  br i1 %18, label %19, label %__lock_timer.exit.thread

19:                                               ; preds = %15
  %20 = icmp eq ptr %3, null
  br i1 %20, label %22, label %21

21:                                               ; preds = %19
  tail call void @llvm.memset.p0.i64(ptr noundef nonnull align 8 dereferenceable(32) %3, i8 0, i64 32, i1 false)
  br label %22

22:                                               ; preds = %21, %19
  %23 = icmp slt i32 %0, 0
  br i1 %23, label %__lock_timer.exit.thread, label %24

24:                                               ; preds = %22
  tail call void @__rcu_read_lock() #8
  %25 = tail call i64 asm "movq %gs:${1:P}, $0", "=r,p,~{dirflag},~{fpsr},~{flags}"(ptr nonnull @pcpu_hot) #9
  %26 = inttoptr i64 %25 to ptr
  %27 = getelementptr inbounds i8, ptr %26, i64 1880
  %28 = load ptr, ptr %27, align 8
  %29 = ptrtoint ptr %28 to i64
  %30 = lshr i64 %29, 32
  %31 = xor i64 %30, %29
  %32 = trunc i64 %31 to i32
  %33 = xor i32 %32, %0
  %34 = mul i32 %33, 1640531527
  %35 = lshr i32 %34, 23
  %36 = zext nneg i32 %35 to i64
  %37 = getelementptr [512 x %struct.hlist_head], ptr @posix_timers_hashtable, i64 0, i64 %36
  %38 = load volatile ptr, ptr %37, align 8
  %39 = icmp eq ptr %38, null
  %40 = getelementptr i8, ptr %38, i64 -16
  %41 = icmp eq ptr %40, null
  %42 = or i1 %39, %41
  br i1 %42, label %__lock_timer.exit.thread12, label %.preheader.i

.preheader.i:                                     ; preds = %24, %51
  %43 = phi ptr [ %55, %51 ], [ %40, %24 ]
  %44 = getelementptr inbounds i8, ptr %43, i64 96
  %45 = load volatile ptr, ptr %44, align 8
  %46 = icmp eq ptr %45, %28
  br i1 %46, label %47, label %51

47:                                               ; preds = %.preheader.i
  %48 = getelementptr inbounds i8, ptr %43, i64 52
  %49 = load i32, ptr %48, align 4
  %50 = icmp eq i32 %49, %0
  br i1 %50, label %58, label %51

51:                                               ; preds = %47, %.preheader.i
  %52 = getelementptr inbounds i8, ptr %43, i64 16
  %53 = load volatile ptr, ptr %52, align 8
  %54 = icmp eq ptr %53, null
  %55 = getelementptr i8, ptr %53, i64 -16
  %56 = icmp eq ptr %55, null
  %57 = or i1 %54, %56
  br i1 %57, label %__lock_timer.exit.thread12, label %.preheader.i, !llvm.loop !6

58:                                               ; preds = %47
  %59 = getelementptr inbounds i8, ptr %43, i64 96
  %60 = getelementptr inbounds i8, ptr %43, i64 32
  %61 = tail call i64 @_raw_spin_lock_irqsave(ptr noundef %60) #8
  %62 = load ptr, ptr %59, align 8
  %63 = load ptr, ptr %27, align 8
  %64 = icmp eq ptr %62, %63
  br i1 %64, label %__lock_timer.exit, label %65

65:                                               ; preds = %58
  tail call void @_raw_spin_unlock_irqrestore(ptr noundef %60, i64 noundef %61) #8
  br label %__lock_timer.exit.thread12

__lock_timer.exit.thread12:                       ; preds = %51, %65, %24
  tail call void @__rcu_read_unlock() #8
  br label %__lock_timer.exit.thread

__lock_timer.exit:                                ; preds = %58
  tail call void @__rcu_read_unlock() #8
  %66 = getelementptr inbounds i8, ptr %43, i64 40
  %67 = load ptr, ptr %66, align 8
  %68 = icmp eq ptr %67, null
  br i1 %68, label %.thread, label %.lr.ph

.lr.ph:                                           ; preds = %__lock_timer.exit, %__lock_timer.exit9
  %69 = phi ptr [ %131, %__lock_timer.exit9 ], [ %67, %__lock_timer.exit ]
  %70 = phi ptr [ %130, %__lock_timer.exit9 ], [ %66, %__lock_timer.exit ]
  %71 = phi ptr [ %107, %__lock_timer.exit9 ], [ %43, %__lock_timer.exit ]
  %72 = phi ptr [ null, %__lock_timer.exit9 ], [ %3, %__lock_timer.exit ]
  %.246 = phi i64 [ %125, %__lock_timer.exit9 ], [ %61, %__lock_timer.exit ]
  %73 = getelementptr inbounds i8, ptr %69, i64 56
  %74 = load ptr, ptr %73, align 8
  %75 = icmp eq ptr %74, null
  br i1 %75, label %.thread, label %76, !prof !11

.thread:                                          ; preds = %.lr.ph, %__lock_timer.exit9, %__lock_timer.exit
  %.2.lcssa = phi i64 [ %61, %__lock_timer.exit ], [ %125, %__lock_timer.exit9 ], [ %.246, %.lr.ph ]
  %.lcssa21 = phi ptr [ %43, %__lock_timer.exit ], [ %107, %__lock_timer.exit9 ], [ %71, %.lr.ph ]
  tail call void asm sideeffect "399: nop\0A\09.pushsection .discard.instr_begin\0A\09.long 399b - .\0A\09.popsection\0A\09", "i,~{dirflag},~{fpsr},~{flags}"(i32 399) #8, !srcloc !33
  tail call void asm sideeffect "1:\09.byte 0x0f, 0x0b\0A.pushsection __bug_table,\22aw\22\0A2:\09.long 1b - .\09# bug_entry::bug_addr\0A\09.long ${0:c} - .\09# bug_entry::file\0A\09.word ${1:c}\09# bug_entry::line\0A\09.word ${2:c}\09# bug_entry::flags\0A\09.org 2b+${3:c}\0A.popsection\0A998:\0A\09.pushsection .discard.reachable\0A\09.long 998b\0A\09.popsection\0A\09", "i,i,i,i,~{dirflag},~{fpsr},~{flags}"(ptr nonnull @.str.2, i32 922, i32 2307, i64 12) #8, !srcloc !34
  tail call void asm sideeffect "400: nop\0A\09.pushsection .discard.instr_end\0A\09.long 400b - .\0A\09.popsection\0A\09", "i,~{dirflag},~{fpsr},~{flags}"(i32 400) #8, !srcloc !35
  br label %.loopexit

76:                                               ; preds = %.lr.ph
  %77 = tail call i32 %74(ptr noundef nonnull %71, i32 noundef %1, ptr noundef %2, ptr noundef %72) #8
  %78 = icmp eq i32 %77, 1
  br i1 %78, label %79, label %.loopexit

79:                                               ; preds = %76
  %80 = load volatile ptr, ptr %70, align 8
  %81 = getelementptr inbounds i8, ptr %71, i64 52
  %82 = load volatile i32, ptr %81, align 4
  tail call void @__rcu_read_lock() #8
  %83 = getelementptr inbounds i8, ptr %71, i64 32
  tail call void @_raw_spin_unlock_irqrestore(ptr noundef %83, i64 noundef %.246) #8
  %84 = getelementptr inbounds i8, ptr %80, i64 120
  %85 = load ptr, ptr %84, align 8
  %86 = icmp eq ptr %85, null
  br i1 %86, label %87, label %88, !prof !11

87:                                               ; preds = %79
  tail call void asm sideeffect "397: nop\0A\09.pushsection .discard.instr_begin\0A\09.long 397b - .\0A\09.popsection\0A\09", "i,~{dirflag},~{fpsr},~{flags}"(i32 397) #8, !srcloc !22
  tail call void asm sideeffect "1:\09.byte 0x0f, 0x0b\0A.pushsection __bug_table,\22aw\22\0A2:\09.long 1b - .\09# bug_entry::bug_addr\0A\09.long ${0:c} - .\09# bug_entry::file\0A\09.word ${1:c}\09# bug_entry::line\0A\09.word ${2:c}\09# bug_entry::flags\0A\09.org 2b+${3:c}\0A.popsection\0A998:\0A\09.pushsection .discard.reachable\0A\09.long 998b\0A\09.popsection\0A\09", "i,i,i,i,~{dirflag},~{fpsr},~{flags}"(ptr nonnull @.str.2, i32 851, i32 2307, i64 12) #8, !srcloc !23
  tail call void asm sideeffect "398: nop\0A\09.pushsection .discard.instr_end\0A\09.long 398b - .\0A\09.popsection\0A\09", "i,~{dirflag},~{fpsr},~{flags}"(i32 398) #8, !srcloc !24
  br label %89

88:                                               ; preds = %79
  tail call void %85(ptr noundef nonnull %71) #8
  br label %89

89:                                               ; preds = %88, %87
  tail call void @__rcu_read_unlock() #8
  %90 = icmp slt i32 %82, 0
  br i1 %90, label %__lock_timer.exit.thread, label %91

91:                                               ; preds = %89
  tail call void @__rcu_read_lock() #8
  %92 = load ptr, ptr %27, align 8
  %93 = ptrtoint ptr %92 to i64
  %94 = lshr i64 %93, 32
  %95 = xor i64 %94, %93
  %96 = trunc i64 %95 to i32
  %97 = xor i32 %82, %96
  %98 = mul i32 %97, 1640531527
  %99 = lshr i32 %98, 23
  %100 = zext nneg i32 %99 to i64
  %101 = getelementptr [512 x %struct.hlist_head], ptr @posix_timers_hashtable, i64 0, i64 %100
  %102 = load volatile ptr, ptr %101, align 8
  %103 = icmp eq ptr %102, null
  %104 = getelementptr i8, ptr %102, i64 -16
  %105 = icmp eq ptr %104, null
  %106 = or i1 %103, %105
  br i1 %106, label %__lock_timer.exit9.thread15, label %.preheader.i7

.preheader.i7:                                    ; preds = %91, %115
  %107 = phi ptr [ %119, %115 ], [ %104, %91 ]
  %108 = getelementptr inbounds i8, ptr %107, i64 96
  %109 = load volatile ptr, ptr %108, align 8
  %110 = icmp eq ptr %109, %92
  br i1 %110, label %111, label %115

111:                                              ; preds = %.preheader.i7
  %112 = getelementptr inbounds i8, ptr %107, i64 52
  %113 = load i32, ptr %112, align 4
  %114 = icmp eq i32 %113, %82
  br i1 %114, label %122, label %115

115:                                              ; preds = %111, %.preheader.i7
  %116 = getelementptr inbounds i8, ptr %107, i64 16
  %117 = load volatile ptr, ptr %116, align 8
  %118 = icmp eq ptr %117, null
  %119 = getelementptr i8, ptr %117, i64 -16
  %120 = icmp eq ptr %119, null
  %121 = or i1 %118, %120
  br i1 %121, label %__lock_timer.exit9.thread15, label %.preheader.i7, !llvm.loop !6

122:                                              ; preds = %111
  %123 = getelementptr inbounds i8, ptr %107, i64 96
  %124 = getelementptr inbounds i8, ptr %107, i64 32
  %125 = tail call i64 @_raw_spin_lock_irqsave(ptr noundef %124) #8
  %126 = load ptr, ptr %123, align 8
  %127 = load ptr, ptr %27, align 8
  %128 = icmp eq ptr %126, %127
  br i1 %128, label %__lock_timer.exit9, label %129

129:                                              ; preds = %122
  tail call void @_raw_spin_unlock_irqrestore(ptr noundef %124, i64 noundef %125) #8
  br label %__lock_timer.exit9.thread15

__lock_timer.exit9.thread15:                      ; preds = %91, %115, %129
  tail call void @__rcu_read_unlock() #8
  br label %__lock_timer.exit.thread

__lock_timer.exit9:                               ; preds = %122
  tail call void @__rcu_read_unlock() #8
  %130 = getelementptr inbounds i8, ptr %107, i64 40
  %131 = load ptr, ptr %130, align 8
  %132 = icmp eq ptr %131, null
  br i1 %132, label %.thread, label %.lr.ph

.loopexit:                                        ; preds = %76, %.thread
  %.232 = phi i64 [ %.2.lcssa, %.thread ], [ %.246, %76 ]
  %133 = phi ptr [ %.lcssa21, %.thread ], [ %71, %76 ]
  %134 = phi i32 [ -22, %.thread ], [ %77, %76 ]
  %135 = getelementptr inbounds i8, ptr %133, i64 32
  tail call void @_raw_spin_unlock_irqrestore(ptr noundef %135, i64 noundef %.232) #8
  br label %__lock_timer.exit.thread

__lock_timer.exit.thread:                         ; preds = %89, %22, %__lock_timer.exit9.thread15, %__lock_timer.exit.thread12, %.loopexit, %15, %11, %7, %4
  %136 = phi i32 [ %134, %.loopexit ], [ -22, %15 ], [ -22, %7 ], [ -22, %4 ], [ -22, %11 ], [ -22, %__lock_timer.exit.thread12 ], [ -22, %__lock_timer.exit9.thread15 ], [ -22, %22 ], [ -22, %89 ]
  ret i32 %136
}